; Function Attrs: mustprogress nounwind uwtable
define hidden void @_ZN6NFALUTD2Ev(ptr noundef nonnull readonly align 8 captures(none) dereferenceable(32) %0) unnamed_addr #7 align 2 {
  %2 = load ptr, ptr %0, align 8, !tbaa !11
  %3 = icmp eq ptr %2, null
  br i1 %3, label %5, label %4

4:                                                ; preds = %1
  tail call void @_ZdaPv(ptr noundef nonnull %2) #42
  br label %5

5:                                                ; preds = %4, %1
  ret void
}